; Function Attrs: mustprogress nofree nounwind willreturn memory(read) uwtable
define noundef double @_ZN3g2o18EdgeSE2TwoPointsXY23initialEstimatePossibleERKSt3setIPNS_10HyperGraph6VertexESt4lessIS4_ESaIS4_EEPNS_16OptimizableGraph6VertexE(ptr nocapture noundef nonnull readonly align 16 dereferenceable(416) %0, ptr noundef nonnull readonly align 8 dereferenceable(48) %1, ptr nocapture readnone %2) unnamed_addr #6 align 2 personality ptr @__gxx_personality_v0 {
  %4 = getelementptr inbounds i8, ptr %1, i64 24
  %5 = load ptr, ptr %4, align 8
  %6 = getelementptr inbounds i8, ptr %1, i64 8
  %.not7 = icmp eq ptr %5, %6
  br i1 %.not7, label %._crit_edge, label %.lr.ph

.lr.ph:                                           ; preds = %3
  %7 = getelementptr inbounds nuw i8, ptr %0, i64 8
  %8 = load ptr, ptr %7, align 8
  %9 = load ptr, ptr %8, align 8
  %10 = getelementptr inbounds nuw i8, ptr %9, i64 8
  %11 = load i32, ptr %10, align 8
  br label %12

12:                                               ; preds = %.lr.ph, %18
  %.sroa.04.08 = phi ptr [ %5, %.lr.ph ], [ %19, %18 ]
  %13 = getelementptr inbounds nuw i8, ptr %.sroa.04.08, i64 32
  %14 = load ptr, ptr %13, align 8
  %15 = getelementptr inbounds nuw i8, ptr %14, i64 8
  %16 = load i32, ptr %15, align 8
  %17 = icmp eq i32 %11, %16
  br i1 %17, label %._crit_edge, label %18

18:                                               ; preds = %12
  %19 = tail call noundef ptr @_ZSt18_Rb_tree_incrementPKSt18_Rb_tree_node_base(ptr noundef nonnull %.sroa.04.08) #29
  %.not = icmp eq ptr %19, %6
  br i1 %.not, label %._crit_edge, label %12, !llvm.loop !68

._crit_edge:                                      ; preds = %12, %18, %3
  %.0 = phi double [ -1.000000e+00, %3 ], [ -1.000000e+00, %18 ], [ 1.000000e+00, %12 ]
  ret double %.0
}